; Function Attrs: mustprogress uwtable
define noundef i64 @_ZNK6google8protobuf7Message29MaybeComputeUnknownFieldsSizeEmPNS0_8internal10CachedSizeE(ptr nocapture noundef nonnull readonly align 8 dereferenceable(16) %this, i64 noundef %total_size, ptr nocapture noundef writeonly %cached_size) local_unnamed_addr #3 align 2 {
entry:
  %_internal_metadata_ = getelementptr inbounds i8, ptr %this, i64 8
  %0 = load i64, ptr %_internal_metadata_, align 8
  %and.i = and i64 %0, 1
  %tobool.i.not = icmp eq i64 %and.i, 0
  br i1 %tobool.i.not, label %return, label %_ZNK6google8protobuf7Message24ComputeUnknownFieldsSizeEmPNS0_8internal10CachedSizeE.exit

_ZNK6google8protobuf7Message24ComputeUnknownFieldsSizeEmPNS0_8internal10CachedSizeE.exit: ; preds = %entry
  %and.i3.i = and i64 %0, -2
  %1 = inttoptr i64 %and.i3.i to ptr
  %unknown_fields.i.i = getelementptr inbounds i8, ptr %1, i64 8
  %call2.i = tail call noundef i64 @_ZN6google8protobuf8internal10WireFormat24ComputeUnknownFieldsSizeERKNS0_15UnknownFieldSetE(ptr noundef nonnull align 8 dereferenceable(24) %unknown_fields.i.i)
  %add.i = add i64 %call2.i, %total_size
  br label %return

return:                                           ; preds = %entry, %_ZNK6google8protobuf7Message24ComputeUnknownFieldsSizeEmPNS0_8internal10CachedSizeE.exit
  %total_size.sink = phi i64 [ %add.i, %_ZNK6google8protobuf7Message24ComputeUnknownFieldsSizeEmPNS0_8internal10CachedSizeE.exit ], [ %total_size, %entry ]
  %conv.i = trunc i64 %total_size.sink to i32
  store atomic i32 %conv.i, ptr %cached_size monotonic, align 4
  ret i64 %total_size.sink
}